; Function Attrs: nounwind uwtable
define ptr @l_Array_foldlMUnsafe_fold___at_Lake_Toml_mkSimpleTable___spec__1(ptr noundef readonly captures(none) %0, i64 noundef %1, i64 noundef %2, ptr noundef %3) local_unnamed_addr #2 {
  %.not83 = icmp eq i64 %1, %2
  br i1 %.not83, label %._crit_edge, label %.lr.ph

.lr.ph:                                           ; preds = %4
  %5 = getelementptr inbounds nuw i8, ptr %0, i64 24
  br label %6

6:                                                ; preds = %.lr.ph, %lean_dec.exit40
  %.03385 = phi i64 [ %1, %.lr.ph ], [ %17, %lean_dec.exit40 ]
  %.03584 = phi ptr [ %3, %.lr.ph ], [ %.237, %lean_dec.exit40 ]
  %7 = getelementptr inbounds nuw [0 x ptr], ptr %5, i64 0, i64 %.03385
  %8 = load ptr, ptr %7, align 8, !tbaa !9
  %9 = ptrtoint ptr %8 to i64
  %10 = and i64 %9, 1
  %.not.i53 = icmp eq i64 %10, 0
  br i1 %.not.i53, label %11, label %lean_array_uget.exit

11:                                               ; preds = %6
  %.val.i.i = load i32, ptr %8, align 4, !tbaa !4
  %12 = icmp sgt i32 %.val.i.i, 0
  br i1 %12, label %13, label %15, !prof !11

13:                                               ; preds = %11
  %14 = add nuw i32 %.val.i.i, 1
  store i32 %14, ptr %8, align 4, !tbaa !4
  br label %lean_array_uget.exit

15:                                               ; preds = %11
  %.not.i.i = icmp eq i32 %.val.i.i, 0
  br i1 %.not.i.i, label %lean_array_uget.exit, label %16

16:                                               ; preds = %15
  tail call void @lean_inc_ref_cold(ptr noundef nonnull %8) #8
  br label %lean_array_uget.exit

lean_array_uget.exit:                             ; preds = %6, %13, %15, %16
  %17 = add i64 %.03385, 1
  %18 = getelementptr inbounds nuw i8, ptr %8, i64 8
  %19 = load ptr, ptr %18, align 8, !tbaa !9
  %20 = ptrtoint ptr %19 to i64
  %21 = and i64 %20, 1
  %.not76 = icmp eq i64 %21, 0
  br i1 %.not76, label %22, label %lean_inc.exit46

22:                                               ; preds = %lean_array_uget.exit
  %.val.i = load i32, ptr %19, align 4, !tbaa !4
  %23 = icmp sgt i32 %.val.i, 0
  br i1 %23, label %24, label %26, !prof !11

24:                                               ; preds = %22
  %25 = add nuw i32 %.val.i, 1
  store i32 %25, ptr %19, align 4, !tbaa !4
  br label %lean_inc.exit46

26:                                               ; preds = %22
  %.not.i54 = icmp eq i32 %.val.i, 0
  br i1 %.not.i54, label %lean_inc.exit46, label %27

27:                                               ; preds = %26
  tail call void @lean_inc_ref_cold(ptr noundef nonnull %19) #8
  br label %lean_inc.exit46

lean_inc.exit46:                                  ; preds = %27, %26, %24, %lean_array_uget.exit
  %28 = getelementptr inbounds nuw i8, ptr %8, i64 16
  %29 = load ptr, ptr %28, align 8, !tbaa !9
  %30 = ptrtoint ptr %29 to i64
  %31 = and i64 %30, 1
  %.not77 = icmp eq i64 %31, 0
  br i1 %.not77, label %32, label %lean_inc.exit45

32:                                               ; preds = %lean_inc.exit46
  %.val.i55 = load i32, ptr %29, align 4, !tbaa !4
  %33 = icmp sgt i32 %.val.i55, 0
  br i1 %33, label %34, label %36, !prof !11

34:                                               ; preds = %32
  %35 = add nuw i32 %.val.i55, 1
  store i32 %35, ptr %29, align 4, !tbaa !4
  br label %lean_inc.exit45

36:                                               ; preds = %32
  %.not.i56 = icmp eq i32 %.val.i55, 0
  br i1 %.not.i56, label %lean_inc.exit45, label %37

37:                                               ; preds = %36
  tail call void @lean_inc_ref_cold(ptr noundef nonnull %29) #8
  br label %lean_inc.exit45

lean_inc.exit45:                                  ; preds = %37, %36, %34, %lean_inc.exit46
  %38 = getelementptr inbounds nuw i8, ptr %8, i64 24
  %39 = load ptr, ptr %38, align 8, !tbaa !9
  %40 = ptrtoint ptr %39 to i64
  %41 = and i64 %40, 1
  %.not78 = icmp eq i64 %41, 0
  br i1 %.not78, label %42, label %lean_inc.exit44

42:                                               ; preds = %lean_inc.exit45
  %.val.i58 = load i32, ptr %39, align 4, !tbaa !4
  %43 = icmp sgt i32 %.val.i58, 0
  br i1 %43, label %44, label %46, !prof !11

44:                                               ; preds = %42
  %45 = add nuw i32 %.val.i58, 1
  store i32 %45, ptr %39, align 4, !tbaa !4
  br label %lean_inc.exit44

46:                                               ; preds = %42
  %.not.i59 = icmp eq i32 %.val.i58, 0
  br i1 %.not.i59, label %lean_inc.exit44, label %47

47:                                               ; preds = %46
  tail call void @lean_inc_ref_cold(ptr noundef nonnull %39) #8
  br label %lean_inc.exit44

lean_inc.exit44:                                  ; preds = %47, %46, %44, %lean_inc.exit45
  br i1 %.not.i53, label %48, label %lean_dec.exit42

48:                                               ; preds = %lean_inc.exit44
  %49 = load i32, ptr %8, align 4, !tbaa !4
  %50 = icmp sgt i32 %49, 1
  br i1 %50, label %51, label %53, !prof !11

51:                                               ; preds = %48
  %52 = add nsw i32 %49, -1
  store i32 %52, ptr %8, align 4, !tbaa !4
  br label %lean_dec.exit42

53:                                               ; preds = %48
  %.not.i = icmp eq i32 %49, 0
  br i1 %.not.i, label %lean_dec.exit42, label %54

54:                                               ; preds = %53
  tail call void @lean_dec_ref_cold(ptr noundef nonnull %8) #8
  br label %lean_dec.exit42

lean_dec.exit42:                                  ; preds = %54, %53, %51, %lean_inc.exit44
  %55 = tail call ptr @l_Lean_Name_components(ptr noundef %29) #8
  %56 = ptrtoint ptr %55 to i64
  %57 = and i64 %56, 1
  %.not.i61 = icmp eq i64 %57, 0
  br i1 %.not.i61, label %61, label %58

58:                                               ; preds = %lean_dec.exit42
  %59 = lshr i64 %56, 1
  %60 = trunc i64 %59 to i32
  br label %lean_obj_tag.exit

61:                                               ; preds = %lean_dec.exit42
  %62 = getelementptr i8, ptr %55, i64 4
  %.val.i62 = load i32, ptr %62, align 4
  %63 = lshr i32 %.val.i62, 24
  br label %lean_obj_tag.exit

lean_obj_tag.exit:                                ; preds = %58, %61
  %.0.i = phi i32 [ %60, %58 ], [ %63, %61 ]
  %64 = icmp eq i32 %.0.i, 0
  br i1 %64, label %65, label %80

65:                                               ; preds = %lean_obj_tag.exit
  br i1 %.not78, label %66, label %lean_dec.exit41

66:                                               ; preds = %65
  %67 = load i32, ptr %39, align 4, !tbaa !4
  %68 = icmp sgt i32 %67, 1
  br i1 %68, label %69, label %71, !prof !11

69:                                               ; preds = %66
  %70 = add nsw i32 %67, -1
  store i32 %70, ptr %39, align 4, !tbaa !4
  br label %lean_dec.exit41

71:                                               ; preds = %66
  %.not.i47 = icmp eq i32 %67, 0
  br i1 %.not.i47, label %lean_dec.exit41, label %72

72:                                               ; preds = %71
  tail call void @lean_dec_ref_cold(ptr noundef nonnull %39) #8
  br label %lean_dec.exit41

lean_dec.exit41:                                  ; preds = %72, %71, %69, %65
  br i1 %.not76, label %73, label %lean_dec.exit40

73:                                               ; preds = %lean_dec.exit41
  %74 = load i32, ptr %19, align 4, !tbaa !4
  %75 = icmp sgt i32 %74, 1
  br i1 %75, label %76, label %78, !prof !11

76:                                               ; preds = %73
  %77 = add nsw i32 %74, -1
  store i32 %77, ptr %19, align 4, !tbaa !4
  br label %lean_dec.exit40

78:                                               ; preds = %73
  %.not.i49 = icmp eq i32 %74, 0
  br i1 %.not.i49, label %lean_dec.exit40, label %79

79:                                               ; preds = %78
  tail call void @lean_dec_ref_cold(ptr noundef nonnull %19) #8
  br label %lean_dec.exit40

80:                                               ; preds = %lean_obj_tag.exit
  %81 = getelementptr inbounds nuw i8, ptr %55, i64 8
  %82 = load ptr, ptr %81, align 8, !tbaa !9
  %83 = ptrtoint ptr %82 to i64
  %84 = and i64 %83, 1
  %.not80 = icmp eq i64 %84, 0
  br i1 %.not80, label %85, label %lean_inc.exit43

85:                                               ; preds = %80
  %.val.i63 = load i32, ptr %82, align 4, !tbaa !4
  %86 = icmp sgt i32 %.val.i63, 0
  br i1 %86, label %87, label %89, !prof !11

87:                                               ; preds = %85
  %88 = add nuw i32 %.val.i63, 1
  store i32 %88, ptr %82, align 4, !tbaa !4
  br label %lean_inc.exit43

89:                                               ; preds = %85
  %.not.i64 = icmp eq i32 %.val.i63, 0
  br i1 %.not.i64, label %lean_inc.exit43, label %90

90:                                               ; preds = %89
  tail call void @lean_inc_ref_cold(ptr noundef nonnull %82) #8
  br label %lean_inc.exit43

lean_inc.exit43:                                  ; preds = %90, %89, %87, %80
  %91 = getelementptr inbounds nuw i8, ptr %55, i64 16
  %92 = load ptr, ptr %91, align 8, !tbaa !9
  %93 = ptrtoint ptr %92 to i64
  %94 = and i64 %93, 1
  %.not81 = icmp eq i64 %94, 0
  br i1 %.not81, label %95, label %lean_inc.exit

95:                                               ; preds = %lean_inc.exit43
  %.val.i66 = load i32, ptr %92, align 4, !tbaa !4
  %96 = icmp sgt i32 %.val.i66, 0
  br i1 %96, label %97, label %99, !prof !11

97:                                               ; preds = %95
  %98 = add nuw i32 %.val.i66, 1
  store i32 %98, ptr %92, align 4, !tbaa !4
  br label %lean_inc.exit

99:                                               ; preds = %95
  %.not.i67 = icmp eq i32 %.val.i66, 0
  br i1 %.not.i67, label %lean_inc.exit, label %100

100:                                              ; preds = %99
  tail call void @lean_inc_ref_cold(ptr noundef nonnull %92) #8
  br label %lean_inc.exit

lean_inc.exit:                                    ; preds = %100, %99, %97, %lean_inc.exit43
  br i1 %.not.i61, label %101, label %lean_dec.exit

101:                                              ; preds = %lean_inc.exit
  %102 = load i32, ptr %55, align 4, !tbaa !4
  %103 = icmp sgt i32 %102, 1
  br i1 %103, label %104, label %106, !prof !11

104:                                              ; preds = %101
  %105 = add nsw i32 %102, -1
  store i32 %105, ptr %55, align 4, !tbaa !4
  br label %lean_dec.exit

106:                                              ; preds = %101
  %.not.i51 = icmp eq i32 %102, 0
  br i1 %.not.i51, label %lean_dec.exit, label %107

107:                                              ; preds = %106
  tail call void @lean_dec_ref_cold(ptr noundef nonnull %55) #8
  br label %lean_dec.exit

lean_dec.exit:                                    ; preds = %107, %106, %104, %lean_inc.exit
  %108 = tail call ptr @l_Lake_Toml_mkSimpleTable_insert(ptr noundef %.03584, ptr noundef %19, ptr noundef %82, ptr noundef %92, ptr noundef %39)
  br label %lean_dec.exit40

lean_dec.exit40:                                  ; preds = %lean_dec.exit41, %76, %78, %79, %lean_dec.exit
  %.237 = phi ptr [ %108, %lean_dec.exit ], [ %.03584, %79 ], [ %.03584, %78 ], [ %.03584, %76 ], [ %.03584, %lean_dec.exit41 ]
  %.not = icmp eq i64 %17, %2
  br i1 %.not, label %._crit_edge, label %6

._crit_edge:                                      ; preds = %lean_dec.exit40, %4
  %.035.lcssa = phi ptr [ %3, %4 ], [ %.237, %lean_dec.exit40 ]
  ret ptr %.035.lcssa
}